target datalayout = "e-m:e-p270:32:32-p271:32:32-p272:64:64-i64:64-i128:128-f80:128-n8:16:32:64-S128"
target triple = "x86_64-pc-linux-gnu"

%struct._object = type { %union.anon, ptr }
%union.anon = type { i64 }
%struct.PyVarObject = type { %struct._object, i64 }
%struct.PyListObject = type { %struct.PyVarObject, ptr, i64 }
%struct.anon = type { i32, i32 }

@_Py_NoneStruct = external global %struct._object, align 8
@PyExc_ValueError = external global ptr, align 8
@.str.37 = private unnamed_addr constant [30 x i8] c"list.remove(x): x not in list\00", align 1

; Function Attrs: alwaysinline nounwind uwtable
define internal i32 @_Py_IsImmortal(ptr noundef %0) #4 {
  %2 = alloca ptr, align 8
  store ptr %0, ptr %2, align 8, !tbaa !36
  %3 = load ptr, ptr %2, align 8, !tbaa !36
  %4 = getelementptr inbounds nuw %struct._object, ptr %3, i32 0, i32 0
  %5 = getelementptr inbounds nuw %struct.anon, ptr %4, i32 0, i32 0
  %6 = load i32, ptr %5, align 8, !tbaa !37
  %7 = icmp slt i32 %6, 0
  %8 = zext i1 %7 to i32
  ret i32 %8
}

; Function Attrs: alwaysinline nounwind uwtable
define internal void @Py_DECREF(ptr noundef %0) #4 {
  %2 = alloca ptr, align 8
  store ptr %0, ptr %2, align 8, !tbaa !36
  %3 = load ptr, ptr %2, align 8, !tbaa !36
  %4 = call i32 @_Py_IsImmortal(ptr noundef %3)
  %5 = icmp ne i32 %4, 0
  br i1 %5, label %6, label %7

6:                                                ; preds = %1
  br label %16

7:                                                ; preds = %1
  %8 = load ptr, ptr %2, align 8, !tbaa !36
  %9 = getelementptr inbounds nuw %struct._object, ptr %8, i32 0, i32 0
  %10 = getelementptr inbounds nuw %struct.anon, ptr %9, i32 0, i32 0
  %11 = load i32, ptr %10, align 8, !tbaa !37
  %12 = add i32 %11, -1
  store i32 %12, ptr %10, align 8, !tbaa !37
  %13 = icmp eq i32 %12, 0
  br i1 %13, label %14, label %16

14:                                               ; preds = %7
  %15 = load ptr, ptr %2, align 8, !tbaa !36
  call void @_Py_Dealloc(ptr noundef %15)
  br label %16

16:                                               ; preds = %6, %14, %7
  ret void
}

; Function Attrs: alwaysinline nounwind uwtable
define internal void @Py_INCREF(ptr noundef %0) #4 {
  %2 = alloca ptr, align 8
  %3 = alloca i32, align 4
  %4 = alloca i32, align 4
  store ptr %0, ptr %2, align 8, !tbaa !36
  call void @llvm.lifetime.start.p0(i64 4, ptr %3) #8
  %5 = load ptr, ptr %2, align 8, !tbaa !36
  %6 = getelementptr inbounds nuw %struct._object, ptr %5, i32 0, i32 0
  %7 = getelementptr inbounds nuw %struct.anon, ptr %6, i32 0, i32 0
  %8 = load i32, ptr %7, align 8, !tbaa !37
  store i32 %8, ptr %3, align 4, !tbaa !118
  %9 = load i32, ptr %3, align 4, !tbaa !118
  %10 = icmp slt i32 %9, 0
  br i1 %10, label %11, label %12

11:                                               ; preds = %1
  store i32 1, ptr %4, align 4
  br label %18

12:                                               ; preds = %1
  %13 = load i32, ptr %3, align 4, !tbaa !118
  %14 = add i32 %13, 1
  %15 = load ptr, ptr %2, align 8, !tbaa !36
  %16 = getelementptr inbounds nuw %struct._object, ptr %15, i32 0, i32 0
  %17 = getelementptr inbounds nuw %struct.anon, ptr %16, i32 0, i32 0
  store i32 %14, ptr %17, align 8, !tbaa !37
  store i32 0, ptr %4, align 4
  br label %18

18:                                               ; preds = %12, %11
  call void @llvm.lifetime.end.p0(i64 4, ptr %3) #8
  %19 = load i32, ptr %4, align 4
  switch i32 %19, label %21 [
    i32 0, label %20
    i32 1, label %20
  ]

20:                                               ; preds = %18, %18
  ret void

21:                                               ; preds = %18
  unreachable
}

; Function Attrs: inlinehint nounwind uwtable
define internal i64 @Py_SIZE(ptr noundef %0) #2 {
  %2 = alloca ptr, align 8
  store ptr %0, ptr %2, align 8, !tbaa !36
  %3 = load ptr, ptr %2, align 8, !tbaa !36
  %4 = getelementptr inbounds nuw %struct.PyVarObject, ptr %3, i32 0, i32 1
  %5 = load i64, ptr %4, align 8, !tbaa !38
  ret i64 %5
}

; Function Attrs: nounwind uwtable
define internal ptr @list_remove_impl(ptr noundef %0, ptr noundef %1) #0 {
  %3 = alloca ptr, align 8
  %4 = alloca ptr, align 8
  %5 = alloca ptr, align 8
  %6 = alloca i64, align 8
  %7 = alloca ptr, align 8
  %8 = alloca i32, align 4
  %9 = alloca i32, align 4
  store ptr %0, ptr %4, align 8, !tbaa !27
  store ptr %1, ptr %5, align 8, !tbaa !36
  call void @llvm.lifetime.start.p0(i64 8, ptr %6) #8
  store i64 0, ptr %6, align 8, !tbaa !26
  br label %10

10:                                               ; preds = %47, %2
  %11 = load i64, ptr %6, align 8, !tbaa !26
  %12 = load ptr, ptr %4, align 8, !tbaa !27
  %13 = call i64 @Py_SIZE(ptr noundef %12)
  %14 = icmp slt i64 %11, %13
  br i1 %14, label %15, label %50

15:                                               ; preds = %10
  call void @llvm.lifetime.start.p0(i64 8, ptr %7) #8
  %16 = load ptr, ptr %4, align 8, !tbaa !27
  %17 = getelementptr inbounds nuw %struct.PyListObject, ptr %16, i32 0, i32 1
  %18 = load ptr, ptr %17, align 8, !tbaa !28
  %19 = load i64, ptr %6, align 8, !tbaa !26
  %20 = getelementptr ptr, ptr %18, i64 %19
  %21 = load ptr, ptr %20, align 8, !tbaa !36
  store ptr %21, ptr %7, align 8, !tbaa !36
  %22 = load ptr, ptr %7, align 8, !tbaa !36
  call void @Py_INCREF(ptr noundef %22)
  call void @llvm.lifetime.start.p0(i64 4, ptr %8) #8
  %23 = load ptr, ptr %7, align 8, !tbaa !36
  %24 = load ptr, ptr %5, align 8, !tbaa !36
  %25 = call i32 @PyObject_RichCompareBool(ptr noundef %23, ptr noundef %24, i32 noundef 2)
  store i32 %25, ptr %8, align 4, !tbaa !118
  %26 = load ptr, ptr %7, align 8, !tbaa !36
  call void @Py_DECREF(ptr noundef %26)
  %27 = load i32, ptr %8, align 4, !tbaa !118
  %28 = icmp sgt i32 %27, 0
  br i1 %28, label %29, label %38

29:                                               ; preds = %15
  %30 = load ptr, ptr %4, align 8, !tbaa !27
  %31 = load i64, ptr %6, align 8, !tbaa !26
  %32 = load i64, ptr %6, align 8, !tbaa !26
  %33 = add i64 %32, 1
  %34 = call i32 @list_ass_slice_lock_held(ptr noundef %30, i64 noundef %31, i64 noundef %33, ptr noundef null)
  %35 = icmp eq i32 %34, 0
  br i1 %35, label %36, label %37

36:                                               ; preds = %29
  store ptr @_Py_NoneStruct, ptr %3, align 8
  store i32 1, ptr %9, align 4
  br label %44

37:                                               ; preds = %29
  store ptr null, ptr %3, align 8
  store i32 1, ptr %9, align 4
  br label %44

38:                                               ; preds = %15
  %39 = load i32, ptr %8, align 4, !tbaa !118
  %40 = icmp slt i32 %39, 0
  br i1 %40, label %41, label %42

41:                                               ; preds = %38
  store ptr null, ptr %3, align 8
  store i32 1, ptr %9, align 4
  br label %44

42:                                               ; preds = %38
  br label %43

43:                                               ; preds = %42
  store i32 0, ptr %9, align 4
  br label %44

44:                                               ; preds = %43, %41, %37, %36
  call void @llvm.lifetime.end.p0(i64 4, ptr %8) #8
  call void @llvm.lifetime.end.p0(i64 8, ptr %7) #8
  %45 = load i32, ptr %9, align 4
  switch i32 %45, label %52 [
    i32 0, label %46
  ]

46:                                               ; preds = %44
  br label %47

47:                                               ; preds = %46
  %48 = load i64, ptr %6, align 8, !tbaa !26
  %49 = add i64 %48, 1
  store i64 %49, ptr %6, align 8, !tbaa !26
  br label %10, !llvm.loop !242

50:                                               ; preds = %10
  %51 = load ptr, ptr @PyExc_ValueError, align 8, !tbaa !36
  call void @PyErr_SetString(ptr noundef %51, ptr noundef @.str.37)
  store ptr null, ptr %3, align 8
  store i32 1, ptr %9, align 4
  br label %52

52:                                               ; preds = %50, %44
  call void @llvm.lifetime.end.p0(i64 8, ptr %6) #8
  %53 = load ptr, ptr %3, align 8
  ret ptr %53
}

; Function Attrs: nounwind uwtable
define internal ptr @list_remove(ptr noundef %0, ptr noundef %1) #0 {
  %3 = alloca ptr, align 8
  %4 = alloca ptr, align 8
  %5 = alloca ptr, align 8
  store ptr %0, ptr %3, align 8, !tbaa !27
  store ptr %1, ptr %4, align 8, !tbaa !36
  call void @llvm.lifetime.start.p0(i64 8, ptr %5) #8
  store ptr null, ptr %5, align 8, !tbaa !36
  %6 = load ptr, ptr %3, align 8, !tbaa !27
  %7 = load ptr, ptr %4, align 8, !tbaa !36
  %8 = call ptr @list_remove_impl(ptr noundef %6, ptr noundef %7)
  store ptr %8, ptr %5, align 8, !tbaa !36
  %9 = load ptr, ptr %5, align 8, !tbaa !36
  call void @llvm.lifetime.end.p0(i64 8, ptr %5) #8
  ret ptr %9
}