; Function Attrs: nounwind uwtable
define internal ptr @list_remove(ptr noundef captures(none) %0, ptr noundef %1) #0 {
  %3 = getelementptr i8, ptr %0, i64 16
  %.val22.i = load i64, ptr %3, align 8, !tbaa !33
  %4 = icmp sgt i64 %.val22.i, 0
  br i1 %4, label %.lr.ph.i, label %._crit_edge.i

.lr.ph.i:                                         ; preds = %2
  %5 = getelementptr inbounds nuw i8, ptr %0, i64 24
  br label %6

6:                                                ; preds = %25, %.lr.ph.i
  %.01623.i = phi i64 [ 0, %.lr.ph.i ], [ %26, %25 ]
  %7 = load ptr, ptr %5, align 8, !tbaa !27
  %8 = getelementptr ptr, ptr %7, i64 %.01623.i
  %9 = load ptr, ptr %8, align 8, !tbaa !112
  %10 = load i32, ptr %9, align 8, !tbaa !32
  %11 = icmp slt i32 %10, 0
  br i1 %11, label %Py_INCREF.exit.i, label %12

12:                                               ; preds = %6
  %13 = add nuw i32 %10, 1
  store i32 %13, ptr %9, align 8, !tbaa !32
  br label %Py_INCREF.exit.i

Py_INCREF.exit.i:                                 ; preds = %12, %6
  %14 = tail call i32 @PyObject_RichCompareBool(ptr noundef nonnull %9, ptr noundef %1, i32 noundef 2) #12
  %15 = load i32, ptr %9, align 8, !tbaa !32
  %.not.i.i = icmp sgt i32 %15, -1
  br i1 %.not.i.i, label %16, label %Py_DECREF.exit.i

16:                                               ; preds = %Py_INCREF.exit.i
  %17 = add nsw i32 %15, -1
  store i32 %17, ptr %9, align 8, !tbaa !32
  %18 = icmp eq i32 %17, 0
  br i1 %18, label %19, label %Py_DECREF.exit.i

19:                                               ; preds = %16
  tail call void @_Py_Dealloc(ptr noundef nonnull %9) #12
  br label %Py_DECREF.exit.i

Py_DECREF.exit.i:                                 ; preds = %19, %16, %Py_INCREF.exit.i
  %20 = icmp sgt i32 %14, 0
  br i1 %20, label %.thread.i, label %24

.thread.i:                                        ; preds = %Py_DECREF.exit.i
  %21 = add nuw nsw i64 %.01623.i, 1
  %22 = tail call fastcc i32 @list_ass_slice_lock_held(ptr noundef nonnull %0, i64 noundef %.01623.i, i64 noundef %21, ptr noundef null)
  %23 = icmp eq i32 %22, 0
  %_Py_NoneStruct..i = select i1 %23, ptr @_Py_NoneStruct, ptr null
  br label %list_remove_impl.exit

24:                                               ; preds = %Py_DECREF.exit.i
  %.not.i = icmp eq i32 %14, 0
  br i1 %.not.i, label %25, label %list_remove_impl.exit

25:                                               ; preds = %24
  %26 = add nuw nsw i64 %.01623.i, 1
  %.val.i = load i64, ptr %3, align 8, !tbaa !33
  %27 = icmp slt i64 %26, %.val.i
  br i1 %27, label %6, label %._crit_edge.i, !llvm.loop !217

._crit_edge.i:                                    ; preds = %25, %2
  %28 = load ptr, ptr @PyExc_ValueError, align 8, !tbaa !112
  tail call void @PyErr_SetString(ptr noundef %28, ptr noundef nonnull @.str.37) #12
  br label %list_remove_impl.exit

list_remove_impl.exit:                            ; preds = %24, %.thread.i, %._crit_edge.i
  %.2.i = phi ptr [ null, %._crit_edge.i ], [ %_Py_NoneStruct..i, %.thread.i ], [ null, %24 ]
  ret ptr %.2.i
}